; Function Attrs: mustprogress uwtable
define hidden noundef ptr @_ZN7grobner13copy_equationEPKNS_8equationE(ptr noundef nonnull align 8 dereferenceable(228) %this, ptr nocapture noundef readonly %eq) local_unnamed_addr #3 align 2 {
entry:
  %call = tail call noalias noundef ptr @_ZN6memory8allocateEm(i64 noundef 24)
  %m_monomials.i = getelementptr inbounds i8, ptr %call, i64 8
  store ptr null, ptr %m_monomials.i, align 8
  %m_monomials.i9 = getelementptr inbounds i8, ptr %eq, i64 8
  %0 = load ptr, ptr %m_monomials.i9, align 8
  %cmp.i.i = icmp eq ptr %0, null
  br i1 %cmp.i.i, label %for.end, label %_ZNK7grobner8equation17get_num_monomialsEv.exit

_ZNK7grobner8equation17get_num_monomialsEv.exit:  ; preds = %entry
  %arrayidx.i.i = getelementptr inbounds i8, ptr %0, i64 -4
  %1 = load i32, ptr %arrayidx.i.i, align 4
  %cmp21.not = icmp eq i32 %1, 0
  br i1 %cmp21.not, label %for.end, label %for.body.preheader

for.body.preheader:                               ; preds = %_ZNK7grobner8equation17get_num_monomialsEv.exit
  %wide.trip.count = zext i32 %1 to i64
  br label %for.body

for.body:                                         ; preds = %for.body.preheader, %_ZN6vectorIPN7grobner8monomialELb0EjE9push_backEOS2_.exit
  %indvars.iv = phi i64 [ 0, %for.body.preheader ], [ %indvars.iv.next, %_ZN6vectorIPN7grobner8monomialELb0EjE9push_backEOS2_.exit ]
  %2 = load ptr, ptr %m_monomials.i9, align 8
  %arrayidx.i.i11 = getelementptr inbounds ptr, ptr %2, i64 %indvars.iv
  %3 = load ptr, ptr %arrayidx.i.i11, align 8
  %call4 = tail call noundef ptr @_ZN7grobner13copy_monomialEPKNS_8monomialE(ptr nonnull align 8 poison, ptr noundef %3)
  %4 = load ptr, ptr %m_monomials.i, align 8
  %cmp.i = icmp eq ptr %4, null
  br i1 %cmp.i, label %if.then.i, label %lor.lhs.false.i

lor.lhs.false.i:                                  ; preds = %for.body
  %arrayidx.i = getelementptr inbounds i8, ptr %4, i64 -4
  %5 = load i32, ptr %arrayidx.i, align 4
  %arrayidx4.i = getelementptr inbounds i8, ptr %4, i64 -8
  %6 = load i32, ptr %arrayidx4.i, align 4
  %cmp5.i = icmp eq i32 %5, %6
  br i1 %cmp5.i, label %if.then.i, label %_ZN6vectorIPN7grobner8monomialELb0EjE9push_backEOS2_.exit

if.then.i:                                        ; preds = %lor.lhs.false.i, %for.body
  tail call void @_ZN6vectorIPN7grobner8monomialELb0EjE13expand_vectorEv(ptr noundef nonnull align 8 dereferenceable(8) %m_monomials.i)
  %.pre.i = load ptr, ptr %m_monomials.i, align 8
  %arrayidx8.phi.trans.insert.i = getelementptr inbounds i8, ptr %.pre.i, i64 -4
  %.pre1.i = load i32, ptr %arrayidx8.phi.trans.insert.i, align 4
  br label %_ZN6vectorIPN7grobner8monomialELb0EjE9push_backEOS2_.exit

_ZN6vectorIPN7grobner8monomialELb0EjE9push_backEOS2_.exit: ; preds = %lor.lhs.false.i, %if.then.i
  %7 = phi i32 [ %.pre1.i, %if.then.i ], [ %5, %lor.lhs.false.i ]
  %8 = phi ptr [ %.pre.i, %if.then.i ], [ %4, %lor.lhs.false.i ]
  %idx.ext.i = zext i32 %7 to i64
  %add.ptr.i = getelementptr inbounds ptr, ptr %8, i64 %idx.ext.i
  store ptr %call4, ptr %add.ptr.i, align 8
  %9 = load ptr, ptr %m_monomials.i, align 8
  %arrayidx10.i = getelementptr inbounds i8, ptr %9, i64 -4
  %10 = load i32, ptr %arrayidx10.i, align 4
  %inc.i = add i32 %10, 1
  store i32 %inc.i, ptr %arrayidx10.i, align 4
  %indvars.iv.next = add nuw nsw i64 %indvars.iv, 1
  %exitcond.not = icmp eq i64 %indvars.iv.next, %wide.trip.count
  br i1 %exitcond.not, label %for.end, label %for.body, !llvm.loop !36

for.end:                                          ; preds = %_ZN6vectorIPN7grobner8monomialELb0EjE9push_backEOS2_.exit, %entry, %_ZNK7grobner8equation17get_num_monomialsEv.exit
  %m_dep = getelementptr inbounds i8, ptr %eq, i64 16
  %11 = load ptr, ptr %m_dep, align 8
  %m_scopes.i.i = getelementptr inbounds i8, ptr %this, i64 184
  %12 = load ptr, ptr %m_scopes.i.i, align 8
  %cmp.i.i.i = icmp eq ptr %12, null
  br i1 %cmp.i.i.i, label %_ZNK7grobner15get_scope_levelEv.exit.i, label %if.end.i.i.i

if.end.i.i.i:                                     ; preds = %for.end
  %arrayidx.i.i.i = getelementptr inbounds i8, ptr %12, i64 -4
  %13 = load i32, ptr %arrayidx.i.i.i, align 4
  br label %_ZNK7grobner15get_scope_levelEv.exit.i

_ZNK7grobner15get_scope_levelEv.exit.i:           ; preds = %if.end.i.i.i, %for.end
  %retval.0.i.i.i = phi i32 [ %13, %if.end.i.i.i ], [ 0, %for.end ]
  store i32 %retval.0.i.i.i, ptr %call, align 8
  %m_equations_to_delete.i = getelementptr inbounds i8, ptr %this, i64 160
  %14 = load ptr, ptr %m_equations_to_delete.i, align 8
  %cmp.i.i12 = icmp eq ptr %14, null
  br i1 %cmp.i.i12, label %_ZNK6vectorIPN7grobner8equationELb0EjE4sizeEv.exit.i.thread, label %lor.lhs.false.i.i

_ZNK6vectorIPN7grobner8equationELb0EjE4sizeEv.exit.i.thread: ; preds = %_ZNK7grobner15get_scope_levelEv.exit.i
  %m_bidx.i17 = getelementptr inbounds i8, ptr %call, i64 4
  %m_dep.i18 = getelementptr inbounds i8, ptr %call, i64 16
  store ptr %11, ptr %m_dep.i18, align 8
  store i32 -2147483648, ptr %m_bidx.i17, align 4
  br label %if.then.i.i

lor.lhs.false.i.i:                                ; preds = %_ZNK7grobner15get_scope_levelEv.exit.i
  %arrayidx.i.i14 = getelementptr inbounds i8, ptr %14, i64 -4
  %15 = load i32, ptr %arrayidx.i.i14, align 4
  %16 = or i32 %15, -2147483648
  %m_bidx.i = getelementptr inbounds i8, ptr %call, i64 4
  %m_dep.i = getelementptr inbounds i8, ptr %call, i64 16
  store ptr %11, ptr %m_dep.i, align 8
  store i32 %16, ptr %m_bidx.i, align 4
  %17 = load i32, ptr %arrayidx.i.i14, align 4
  %arrayidx4.i.i = getelementptr inbounds i8, ptr %14, i64 -8
  %18 = load i32, ptr %arrayidx4.i.i, align 4
  %cmp5.i.i = icmp eq i32 %17, %18
  br i1 %cmp5.i.i, label %if.then.i.i, label %_ZN7grobner13init_equationEPNS_8equationEPN18dependency_managerIN25scoped_dependency_managerIPvE6configEE10dependencyE.exit

if.then.i.i:                                      ; preds = %_ZNK6vectorIPN7grobner8equationELb0EjE4sizeEv.exit.i.thread, %lor.lhs.false.i.i
  %m_bidx.i20 = phi ptr [ %m_bidx.i17, %_ZNK6vectorIPN7grobner8equationELb0EjE4sizeEv.exit.i.thread ], [ %m_bidx.i, %lor.lhs.false.i.i ]
  tail call void @_ZN6vectorIPN7grobner8equationELb0EjE13expand_vectorEv(ptr noundef nonnull align 8 dereferenceable(8) %m_equations_to_delete.i)
  %.pre.i.i = load ptr, ptr %m_equations_to_delete.i, align 8
  %arrayidx8.phi.trans.insert.i.i = getelementptr inbounds i8, ptr %.pre.i.i, i64 -4
  %.pre1.i.i = load i32, ptr %arrayidx8.phi.trans.insert.i.i, align 4
  br label %_ZN7grobner13init_equationEPNS_8equationEPN18dependency_managerIN25scoped_dependency_managerIPvE6configEE10dependencyE.exit

_ZN7grobner13init_equationEPNS_8equationEPN18dependency_managerIN25scoped_dependency_managerIPvE6configEE10dependencyE.exit: ; preds = %lor.lhs.false.i.i, %if.then.i.i
  %m_bidx.i19 = phi ptr [ %m_bidx.i20, %if.then.i.i ], [ %m_bidx.i, %lor.lhs.false.i.i ]
  %19 = phi i32 [ %.pre1.i.i, %if.then.i.i ], [ %17, %lor.lhs.false.i.i ]
  %20 = phi ptr [ %.pre.i.i, %if.then.i.i ], [ %14, %lor.lhs.false.i.i ]
  %idx.ext.i.i = zext i32 %19 to i64
  %add.ptr.i.i = getelementptr inbounds ptr, ptr %20, i64 %idx.ext.i.i
  store ptr %call, ptr %add.ptr.i.i, align 8
  %21 = load ptr, ptr %m_equations_to_delete.i, align 8
  %arrayidx10.i.i = getelementptr inbounds i8, ptr %21, i64 -4
  %22 = load i32, ptr %arrayidx10.i.i, align 4
  %inc.i.i = add i32 %22, 1
  store i32 %inc.i.i, ptr %arrayidx10.i.i, align 4
  %m_lc = getelementptr inbounds i8, ptr %eq, i64 4
  %bf.load = load i32, ptr %m_lc, align 4
  %bf.lshr = and i32 %bf.load, -2147483648
  %bf.load7 = load i32, ptr %m_bidx.i19, align 4
  %bf.clear = and i32 %bf.load7, 2147483647
  %bf.set = or disjoint i32 %bf.clear, %bf.lshr
  store i32 %bf.set, ptr %m_bidx.i19, align 4
  ret ptr %call
}